Certificate:
    Data:
        Version: 3 (0x2)
        Serial Number: 2 (0x2)
        Signature Algorithm: sha256WithRSAEncryption
        Issuer: C=US, O=Google, OU=Enterprise, CN=Enterprise Subordinate CA
        Validity
            Not Before: Jan  9 22:27:28 2022 GMT
            Not After : Jul  2 22:27:28 2027 GMT
        Subject: C=US, O=Google, OU=Enterprise, CN=squid.yourdomain.com
        Subject Public Key Info:
            Public Key Algorithm: rsaEncryption
                RSA Public-Key: (2048 bit)
                Modulus:
                    00:c4:37:96:d1:08:0c:97:8c:32:b6:87:d6:9d:6e:
                    21:94:0a:7d:68:0a:aa:ba:d0:c4:61:58:43:d0:91:
                    ac:8a:aa:ec:8f:33:b2:c2:09:1d:45:e1:f0:9b:fa:
                    50:fd:cd:e5:fc:ba:0f:57:c8:fd:3a:21:49:5e:67:
                    09:06:92:05:db:5e:fc:a2:1f:be:57:76:7d:d9:1a:
                    90:6a:9a:32:f3:8f:cf:2c:5f:cc:6a:66:26:50:6e:
                    76:c6:7d:73:e5:b1:58:3e:0d:f8:a6:e9:88:78:5c:
                    af:36:c7:d7:69:a5:42:e3:e4:b4:1a:1b:7d:ab:01:
                    57:d0:92:6c:6c:df:f9:a8:ee:e7:7c:93:06:92:9e:
                    22:f5:55:22:d7:ca:44:1a:ef:45:d0:89:26:22:5a:
                    cd:0d:32:e3:62:cf:cf:f1:0c:22:60:a4:ca:a6:e0:
                    cf:dd:ca:ac:b1:fc:8a:f4:f0:9b:46:31:fc:a9:1e:
                    dc:c7:a0:04:f6:e8:9b:1e:43:cd:1e:4e:fa:db:c3:
                    48:77:4d:f0:bf:fe:f2:3e:1f:9a:59:a2:1a:fe:74:
                    be:a8:fd:1f:ad:f9:ef:4e:21:52:e6:d2:78:1e:09:
                    5c:9c:a6:07:da:cf:25:64:bb:b3:09:44:21:2c:b4:
                    66:37:86:67:ec:0a:a8:8b:12:b7:2a:b3:b9:57:ec:
                    14:63
                Exponent: 65537 (0x10001)
        X509v3 extensions:
            X509v3 Key Usage: critical
                Digital Signature
            X509v3 Basic Constraints: 
                CA:FALSE
            X509v3 Extended Key Usage: 
                TLS Web Server Authentication
            X509v3 Subject Key Identifier: 
                B9:AD:BB:AC:31:36:2C:24:B7:67:09:F2:18:0E:11:BC:FE:A0:2F:6F
            X509v3 Authority Key Identifier: 
                keyid:B7:BA:B0:02:A1:E7:BE:34:C6:C1:05:5C:66:78:E5:BB:53:5D:A1:54

            Authority Information Access: 
                CA Issuers - URI:http://pki.esodemoapp2.com/ca/tls-ca.cer

            X509v3 CRL Distribution Points: 

                Full Name:
                  URI:http://pki.esodemoapp2.com/ca/tls-ca.crl

            X509v3 Subject Alternative Name: 
                DNS:squid.yourdomain.com
    Signature Algorithm: sha256WithRSAEncryption
         1d:d2:02:bc:a1:00:3e:87:05:46:b1:8a:7e:81:7c:b3:ed:80:
         ba:4a:32:fa:9c:6c:7c:1a:56:39:2f:f0:d1:81:b7:14:d6:ea:
         a9:bb:84:3e:35:5a:af:dd:36:1d:d0:1b:48:85:1b:d1:92:6c:
         8b:f9:3b:5f:fd:55:8c:c1:40:c3:81:0e:c4:40:c3:2c:07:f6:
         59:c2:73:64:3f:24:6a:a3:58:10:d1:72:65:2d:94:ff:13:0b:
         cc:ae:35:0a:68:46:38:7a:c3:07:89:49:cc:92:20:1f:0a:dd:
         a7:54:26:36:96:d3:10:60:ad:13:75:69:5a:1d:23:21:13:14:
         38:a4:a3:0d:37:cd:be:f7:6f:d1:e8:83:94:69:ad:1a:fd:21:
         00:06:f3:36:d9:2b:99:26:30:5f:c3:7c:94:f1:e9:a0:8e:3d:
         a5:3b:b4:d0:c2:6b:4b:e5:24:c4:cc:5a:c9:83:e1:9f:b4:ca:
         13:c2:6a:f4:b4:72:ef:40:44:10:0a:a1:71:19:ff:e5:80:0a:
         5d:fe:40:cf:2f:42:70:a7:e3:66:0f:0d:3c:03:e3:f2:05:0b:
         bd:30:df:f4:98:cd:71:b3:f9:df:09:bc:08:b6:5b:5e:7c:3d:
         1e:c0:40:fd:d3:56:9d:86:a1:f1:96:15:94:11:ce:f9:0b:1c:
         62:f5:62:be
-----BEGIN CERTIFICATE-----
MIIEPDCCAySgAwIBAgIBAjANBgkqhkiG9w0BAQsFADBXMQswCQYDVQQGEwJVUzEP
MA0GA1UECgwGR29vZ2xlMRMwEQYDVQQLDApFbnRlcnByaXNlMSIwIAYDVQQDDBlF
bnRlcnByaXNlIFN1Ym9yZGluYXRlIENBMB4XDTIyMDEwOTIyMjcyOFoXDTI3MDcw
MjIyMjcyOFowUjELMAkGA1UEBhMCVVMxDzANBgNVBAoMBkdvb2dsZTETMBEGA1UE
CwwKRW50ZXJwcmlzZTEdMBsGA1UEAwwUc3F1aWQueW91cmRvbWFpbi5jb20wggEi
MA0GCSqGSIb3DQEBAQUAA4IBDwAwggEKAoIBAQDEN5bRCAyXjDK2h9adbiGUCn1o
Cqq60MRhWEPQkayKquyPM7LCCR1F4fCb+lD9zeX8ug9XyP06IUleZwkGkgXbXvyi
H75Xdn3ZGpBqmjLzj88sX8xqZiZQbnbGfXPlsVg+Dfim6Yh4XK82x9dppULj5LQa
G32rAVfQkmxs3/mo7ud8kwaSniL1VSLXykQa70XQiSYiWs0NMuNiz8/xDCJgpMqm
4M/dyqyx/Ir08JtGMfypHtzHoAT26JseQ80eTvrbw0h3TfC//vI+H5pZohr+dL6o
/R+t+e9OIVLm0ngeCVycpgfazyVku7MJRCEstGY3hmfsCqiLErcqs7lX7BRjAgMB
AAGjggEWMIIBEjAOBgNVHQ8BAf8EBAMCB4AwCQYDVR0TBAIwADATBgNVHSUEDDAK
BggrBgEFBQcDATAdBgNVHQ4EFgQUua27rDE2LCS3ZwnyGA4RvP6gL28wHwYDVR0j
BBgwFoAUt7qwAqHnvjTGwQVcZnjlu1NdoVQwRAYIKwYBBQUHAQEEODA2MDQGCCsG
AQUFBzAChihodHRwOi8vcGtpLmVzb2RlbW9hcHAyLmNvbS9jYS90bHMtY2EuY2Vy
MDkGA1UdHwQyMDAwLqAsoCqGKGh0dHA6Ly9wa2kuZXNvZGVtb2FwcDIuY29tL2Nh
L3Rscy1jYS5jcmwwHwYDVR0RBBgwFoIUc3F1aWQueW91cmRvbWFpbi5jb20wDQYJ
KoZIhvcNAQELBQADggEBAB3SAryhAD6HBUaxin6BfLPtgLpKMvqcbHwaVjkv8NGB
txTW6qm7hD41Wq/dNh3QG0iFG9GSbIv5O1/9VYzBQMOBDsRAwywH9lnCc2Q/JGqj
WBDRcmUtlP8TC8yuNQpoRjh6wweJScySIB8K3adUJjaW0xBgrRN1aVodIyETFDik
ow03zb73b9Hog5RprRr9IQAG8zbZK5kmMF/DfJTx6aCOPaU7tNDCa0vlJMTMWsmD
4Z+0yhPCavS0cu9ARBAKoXEZ/+WACl3+QM8vQnCn42YPDTwD4/IFC70w3/SYzXGz
+d8JvAi2W158PR7AQP3TVp2GofGWFZQRzvkLHGL1Yr4=
-----END CERTIFICATE-----
