Certificate:
    Data:
        Version: 3 (0x2)
        Serial Number: 50 (0x32)
        Signature Algorithm: sha1WithRSAEncryption
        Issuer: C=US, O=Google, OU=Enterprise, CN=Enterprise Subordinate CA
        Validity
            Not Before: Sep  8 12:27:53 2021 GMT
            Not After : Mar  1 12:27:53 2027 GMT
        Subject: C=US, O=Google, OU=Enterprise, CN=squid.yourdomain.com
        Subject Public Key Info:
            Public Key Algorithm: rsaEncryption
                RSA Public-Key: (2048 bit)
                Modulus:
                    00:a6:84:ed:cd:ac:38:45:b7:14:54:fc:5d:00:57:
                    5f:a2:b4:02:39:81:68:56:43:90:03:36:79:a6:d8:
                    42:3d:61:1a:97:f2:02:8e:93:fd:a2:7a:d6:a9:c2:
                    99:4e:ec:66:18:ec:9c:80:ef:6d:31:14:aa:2c:41:
                    22:98:94:e3:bb:d3:ac:7d:0c:4c:42:e2:e9:ad:8a:
                    3c:7c:ee:69:c3:f4:e4:69:aa:e8:24:06:b9:17:3e:
                    f3:aa:a3:2f:82:32:5a:21:fe:92:46:32:52:65:b4:
                    13:f7:c8:cc:1b:98:b0:14:cf:43:14:87:f7:7c:ce:
                    e1:cc:8c:0a:f7:42:c1:99:e3:52:2f:3d:f7:bb:36:
                    eb:cb:5c:d5:bf:f5:a1:f6:03:2c:5a:8a:54:42:60:
                    8e:fc:61:2b:b7:b3:38:59:96:b0:06:00:bb:44:cf:
                    c3:e2:79:19:38:22:09:7c:b5:71:9d:89:52:90:2c:
                    ec:d4:76:af:e3:7b:f6:c3:c9:b5:ea:5d:52:19:de:
                    ef:dd:7b:65:43:61:7a:36:71:f5:d4:66:fe:69:6f:
                    15:5a:9d:2d:94:3c:b9:b4:b9:e1:8a:15:8f:69:09:
                    1e:dd:53:d6:a9:13:22:6c:7a:4b:37:1f:b5:1e:5e:
                    2b:81:66:80:bb:79:5f:11:bf:f9:1e:ac:c0:53:89:
                    61:6f
                Exponent: 65537 (0x10001)
        X509v3 extensions:
            X509v3 Key Usage: critical
                Digital Signature
            X509v3 Basic Constraints: 
                CA:FALSE
            X509v3 Extended Key Usage: 
                TLS Web Server Authentication
            X509v3 Subject Key Identifier: 
                8B:5A:4C:01:3A:00:8B:85:18:62:43:B5:0A:CF:11:03:29:B2:D9:C2
            X509v3 Authority Key Identifier: 
                keyid:BF:E1:1C:F0:22:48:8F:FC:3B:CF:5D:D9:ED:AE:88:70:21:DF:DD:86

            Authority Information Access: 
                CA Issuers - URI:http://pki.esodemoapp2.com/ca/tls-ca.cer

            X509v3 CRL Distribution Points: 

                Full Name:
                  URI:http://pki.esodemoapp2.com/ca/tls-ca.crl

            X509v3 Subject Alternative Name: 
                DNS:squid.yourdomain.com
    Signature Algorithm: sha1WithRSAEncryption
         c7:8c:0a:e3:dd:a0:3d:cd:ce:53:5f:2d:60:a5:68:d3:de:4b:
         fe:31:be:8f:54:52:02:7c:25:c5:76:7c:a8:01:27:d9:ba:67:
         26:32:c3:c0:12:de:a2:83:81:16:3b:1c:77:e5:81:32:14:cc:
         e0:7b:13:73:6f:a9:68:ba:ab:77:03:f8:53:92:33:31:c8:a2:
         77:65:2f:ca:c3:d6:0c:4b:f3:c5:6e:00:88:36:4b:1c:e4:2d:
         24:e9:65:06:18:0f:bc:89:67:7f:4e:f7:0d:29:af:9f:da:75:
         b8:e9:1f:d7:6a:92:1f:d8:9f:0c:64:d2:2c:b8:b2:e2:f4:7b:
         04:30:20:aa:43:ad:18:cb:39:b4:c4:29:4e:65:80:57:ae:84:
         ff:af:d5:b4:4f:3c:09:73:ab:cf:23:43:7a:ee:10:e0:ea:c4:
         44:58:74:f8:41:21:d5:fc:5b:68:65:82:08:05:63:76:33:21:
         c4:99:fb:12:1a:6e:8d:d4:a7:64:63:22:c4:37:e7:0b:12:b9:
         58:33:f3:6f:dd:6e:ce:53:e9:6e:7f:c6:c9:cc:7a:c8:3a:9d:
         15:e1:fd:fd:74:1a:2b:20:3d:f2:fd:f3:8a:e1:05:6b:a6:cf:
         e2:84:1b:a1:17:95:75:58:d2:1c:9a:8c:ab:ce:d5:3c:f3:c1:
         00:e0:55:1c
-----BEGIN CERTIFICATE-----
MIIEPDCCAySgAwIBAgIBMjANBgkqhkiG9w0BAQUFADBXMQswCQYDVQQGEwJVUzEP
MA0GA1UECgwGR29vZ2xlMRMwEQYDVQQLDApFbnRlcnByaXNlMSIwIAYDVQQDDBlF
bnRlcnByaXNlIFN1Ym9yZGluYXRlIENBMB4XDTIxMDkwODEyMjc1M1oXDTI3MDMw
MTEyMjc1M1owUjELMAkGA1UEBhMCVVMxDzANBgNVBAoMBkdvb2dsZTETMBEGA1UE
CwwKRW50ZXJwcmlzZTEdMBsGA1UEAwwUc3F1aWQueW91cmRvbWFpbi5jb20wggEi
MA0GCSqGSIb3DQEBAQUAA4IBDwAwggEKAoIBAQCmhO3NrDhFtxRU/F0AV1+itAI5
gWhWQ5ADNnmm2EI9YRqX8gKOk/2ietapwplO7GYY7JyA720xFKosQSKYlOO706x9
DExC4umtijx87mnD9ORpqugkBrkXPvOqoy+CMloh/pJGMlJltBP3yMwbmLAUz0MU
h/d8zuHMjAr3QsGZ41IvPfe7NuvLXNW/9aH2AyxailRCYI78YSu3szhZlrAGALtE
z8PieRk4Igl8tXGdiVKQLOzUdq/je/bDybXqXVIZ3u/de2VDYXo2cfXUZv5pbxVa
nS2UPLm0ueGKFY9pCR7dU9apEyJseks3H7UeXiuBZoC7eV8Rv/kerMBTiWFvAgMB
AAGjggEWMIIBEjAOBgNVHQ8BAf8EBAMCB4AwCQYDVR0TBAIwADATBgNVHSUEDDAK
BggrBgEFBQcDATAdBgNVHQ4EFgQUi1pMAToAi4UYYkO1Cs8RAymy2cIwHwYDVR0j
BBgwFoAUv+Ec8CJIj/w7z13Z7a6IcCHf3YYwRAYIKwYBBQUHAQEEODA2MDQGCCsG
AQUFBzAChihodHRwOi8vcGtpLmVzb2RlbW9hcHAyLmNvbS9jYS90bHMtY2EuY2Vy
MDkGA1UdHwQyMDAwLqAsoCqGKGh0dHA6Ly9wa2kuZXNvZGVtb2FwcDIuY29tL2Nh
L3Rscy1jYS5jcmwwHwYDVR0RBBgwFoIUc3F1aWQueW91cmRvbWFpbi5jb20wDQYJ
KoZIhvcNAQEFBQADggEBAMeMCuPdoD3NzlNfLWClaNPeS/4xvo9UUgJ8JcV2fKgB
J9m6ZyYyw8AS3qKDgRY7HHflgTIUzOB7E3NvqWi6q3cD+FOSMzHIondlL8rD1gxL
88VuAIg2SxzkLSTpZQYYD7yJZ39O9w0pr5/adbjpH9dqkh/Ynwxk0iy4suL0ewQw
IKpDrRjLObTEKU5lgFeuhP+v1bRPPAlzq88jQ3ruEODqxERYdPhBIdX8W2hlgggF
Y3YzIcSZ+xIabo3Up2RjIsQ35wsSuVgz82/dbs5T6W5/xsnMesg6nRXh/f10Gisg
PfL984rhBWumz+KEG6EXlXVY0hyajKvO1TzzwQDgVRw=
-----END CERTIFICATE-----
